; Function Attrs: mustprogress nounwind uwtable
define void @_ZN7rocksdb20RangeTreeLockTracker5ClearEv(ptr nocapture noundef nonnull align 8 dereferenceable(16) %this) unnamed_addr #6 align 2 personality ptr @__gxx_personality_v0 {
entry:
  %range_list_ = getelementptr inbounds i8, ptr %this, i64 8
  %0 = load ptr, ptr %range_list_, align 8
  store ptr null, ptr %range_list_, align 8
  %tobool.not.i.i = icmp eq ptr %0, null
  br i1 %tobool.not.i.i, label %_ZNSt10unique_ptrIN7rocksdb13RangeLockListESt14default_deleteIS1_EE5resetEPS1_.exit, label %delete.notnull.i.i.i

delete.notnull.i.i.i:                             ; preds = %entry
  invoke void @_ZN7rocksdb13RangeLockList5ClearEv(ptr noundef nonnull align 8 dereferenceable(97) %0)
          to label %_ZNKSt14default_deleteIN7rocksdb13RangeLockListEEclEPS1_.exit.i.i unwind label %terminate.lpad.i.i.i.i

terminate.lpad.i.i.i.i:                           ; preds = %delete.notnull.i.i.i
  %1 = landingpad { ptr, i32 }
          catch ptr null
  %2 = extractvalue { ptr, i32 } %1, 0
  tail call void @__clang_call_terminate(ptr %2) #15
  unreachable

_ZNKSt14default_deleteIN7rocksdb13RangeLockListEEclEPS1_.exit.i.i: ; preds = %delete.notnull.i.i.i
  %mutex_.i.i.i.i = getelementptr inbounds i8, ptr %0, i64 56
  tail call void @_ZN7rocksdb4port5MutexD1Ev(ptr noundef nonnull align 8 dereferenceable(40) %mutex_.i.i.i.i) #13
  tail call void @_ZNSt10_HashtableIjSt4pairIKjSt10shared_ptrIN4toku12range_bufferEEESaIS6_ENSt8__detail10_Select1stESt8equal_toIjESt4hashIjENS8_18_Mod_range_hashingENS8_20_Default_ranged_hashENS8_20_Prime_rehash_policyENS8_17_Hashtable_traitsILb0ELb0ELb1EEEED2Ev(ptr noundef nonnull align 8 dereferenceable(56) %0) #13
  tail call void @_ZdlPv(ptr noundef nonnull %0) #14
  br label %_ZNSt10unique_ptrIN7rocksdb13RangeLockListESt14default_deleteIS1_EE5resetEPS1_.exit

_ZNSt10unique_ptrIN7rocksdb13RangeLockListESt14default_deleteIS1_EE5resetEPS1_.exit: ; preds = %entry, %_ZNKSt14default_deleteIN7rocksdb13RangeLockListEEclEPS1_.exit.i.i
  ret void
}